; Function Attrs: mustprogress nounwind uwtable
define void @_ZN11SecPassword7ProcessEPKwmPwmb(ptr noundef nonnull readnone align 8 captures(none) dereferenceable(25) %0, ptr noundef readonly captures(none) %1, i64 noundef %2, ptr noundef captures(none) %3, i64 noundef %4, i1 noundef zeroext %5) local_unnamed_addr #2 align 2 {
  %7 = tail call i64 @llvm.umin.i64(i64 %2, i64 %4)
  %8 = shl i64 %7, 2
  tail call void @llvm.memcpy.p0.p0.i64(ptr align 4 %3, ptr align 4 %1, i64 %8, i1 false)
  %9 = shl i64 %4, 2
  %10 = tail call i32 @getpid() #15
  %.not.i = icmp eq i64 %9, 0
  br i1 %.not.i, label %_Z11SecHideDataPvmbb.exit, label %.lr.ph.i

.lr.ph.i:                                         ; preds = %6
  %11 = zext i32 %10 to i64
  br label %12

12:                                               ; preds = %12, %.lr.ph.i
  %.06.i = phi i64 [ 0, %.lr.ph.i ], [ %19, %12 ]
  %13 = add i64 %.06.i, %11
  %14 = getelementptr inbounds nuw i8, ptr %3, i64 %.06.i
  %15 = load i8, ptr %14, align 1, !tbaa !17
  %16 = trunc i64 %13 to i8
  %17 = add i8 %16, 75
  %18 = xor i8 %17, %15
  store i8 %18, ptr %14, align 1, !tbaa !17
  %19 = add nuw i64 %.06.i, 1
  %exitcond.not.i = icmp eq i64 %19, %9
  br i1 %exitcond.not.i, label %_Z11SecHideDataPvmbb.exit, label %12, !llvm.loop !22

_Z11SecHideDataPvmbb.exit:                        ; preds = %12, %6
  ret void
}